; Function Attrs: nounwind uwtable
define noundef ptr @agstrcanon(ptr noundef %0, ptr noundef %1) local_unnamed_addr #0 {
  %3 = tail call i32 @aghtmlstr(ptr noundef %0) #9
  %.not = icmp eq i32 %3, 0
  br i1 %.not, label %6, label %4

4:                                                ; preds = %2
  %5 = tail call i32 (ptr, ptr, ...) @sprintf(ptr noundef nonnull dereferenceable(1) %1, ptr noundef nonnull dereferenceable(1) @.str.1, ptr noundef %0) #9
  br label %8

6:                                                ; preds = %2
  %7 = tail call fastcc ptr @_agstrcanon(ptr noundef %0, ptr noundef %1)
  br label %8

8:                                                ; preds = %6, %4
  %.0 = phi ptr [ %1, %4 ], [ %7, %6 ]
  ret ptr %.0
}